; Function Attrs: mustprogress uwtable
define void @_ZN3zmq12wss_engine_t9out_eventEv(ptr noundef nonnull align 8 dereferenceable(25720) %0) unnamed_addr #0 align 2 {
  %2 = getelementptr inbounds nuw i8, ptr %0, i64 25696
  %3 = load i8, ptr %2, align 8, !tbaa !6, !range !74, !noundef !75
  %4 = trunc nuw i8 %3 to i1
  br i1 %4, label %5, label %6

5:                                                ; preds = %1
  tail call void @_ZN3zmq20stream_engine_base_t9out_eventEv(ptr noundef nonnull align 8 dereferenceable(1689) %0)
  br label %8

6:                                                ; preds = %1
  %7 = tail call noundef zeroext i1 @_ZN3zmq12wss_engine_t12do_handshakeEv(ptr noundef nonnull align 8 dereferenceable(25720) %0)
  br label %8

8:                                                ; preds = %6, %5
  ret void
}